target datalayout = "e-m:e-p270:32:32-p271:32:32-p272:64:64-i64:64-i128:128-f80:128-n8:16:32:64-S128"
target triple = "x86_64-unknown-linux-gnu"

%"class.icu_75::SearchIterator" = type { %"class.icu_75::UObject", ptr, ptr, %"class.icu_75::UnicodeString" }
%"class.icu_75::UObject" = type { ptr }
%"class.icu_75::UnicodeString" = type { %"class.icu_75::Replaceable", %"union.icu_75::UnicodeString::StackBufferOrFields" }
%"class.icu_75::Replaceable" = type { %"class.icu_75::UObject" }
%"union.icu_75::UnicodeString::StackBufferOrFields" = type { %struct.anon.0, [32 x i8] }
%struct.anon.0 = type { i16, i32, i32, ptr }
%struct.USearch = type { ptr, i32, i8, i8, i16, ptr, ptr, i32, i32, i8, i8 }

; Function Attrs: mustprogress uwtable
define void @_ZN6icu_7514SearchIterator16setMatchNotFoundEv(ptr noundef nonnull align 8 dereferenceable(88) %this) #0 align 2 {
entry:
  %this.addr = alloca ptr, align 8
  %status = alloca i32, align 4
  store ptr %this, ptr %this.addr, align 8
  %this1 = load ptr, ptr %this.addr, align 8
  %vtable = load ptr, ptr %this1, align 8
  %vfn = getelementptr inbounds ptr, ptr %vtable, i64 13
  %0 = load ptr, ptr %vfn, align 8
  call void %0(ptr noundef nonnull align 8 dereferenceable(88) %this1, i32 noundef -1)
  %vtable2 = load ptr, ptr %this1, align 8
  %vfn3 = getelementptr inbounds ptr, ptr %vtable2, i64 12
  %1 = load ptr, ptr %vfn3, align 8
  call void %1(ptr noundef nonnull align 8 dereferenceable(88) %this1, i32 noundef 0)
  store i32 0, ptr %status, align 4
  %m_search_ = getelementptr inbounds %"class.icu_75::SearchIterator", ptr %this1, i32 0, i32 1
  %2 = load ptr, ptr %m_search_, align 8
  %isForwardSearching = getelementptr inbounds %struct.USearch, ptr %2, i32 0, i32 9
  %3 = load i8, ptr %isForwardSearching, align 8
  %tobool = icmp ne i8 %3, 0
  br i1 %tobool, label %if.then, label %if.else

if.then:                                          ; preds = %entry
  %m_search_4 = getelementptr inbounds %"class.icu_75::SearchIterator", ptr %this1, i32 0, i32 1
  %4 = load ptr, ptr %m_search_4, align 8
  %textLength = getelementptr inbounds %struct.USearch, ptr %4, i32 0, i32 1
  %5 = load i32, ptr %textLength, align 8
  %vtable5 = load ptr, ptr %this1, align 8
  %vfn6 = getelementptr inbounds ptr, ptr %vtable5, i64 3
  %6 = load ptr, ptr %vfn6, align 8
  call void %6(ptr noundef nonnull align 8 dereferenceable(88) %this1, i32 noundef %5, ptr noundef nonnull align 4 dereferenceable(4) %status)
  br label %if.end

if.else:                                          ; preds = %entry
  %vtable7 = load ptr, ptr %this1, align 8
  %vfn8 = getelementptr inbounds ptr, ptr %vtable7, i64 3
  %7 = load ptr, ptr %vfn8, align 8
  call void %7(ptr noundef nonnull align 8 dereferenceable(88) %this1, i32 noundef 0, ptr noundef nonnull align 4 dereferenceable(4) %status)
  br label %if.end

if.end:                                           ; preds = %if.else, %if.then
  ret void
}

; Function Attrs: mustprogress nounwind uwtable
define internal noundef signext i8 @_ZL9U_SUCCESS10UErrorCode(i32 noundef %code) #1 {
entry:
  %code.addr = alloca i32, align 4
  store i32 %code, ptr %code.addr, align 4
  %0 = load i32, ptr %code.addr, align 4
  %cmp = icmp sle i32 %0, 0
  %conv = zext i1 %cmp to i8
  ret i8 %conv
}

; Function Attrs: mustprogress uwtable
define noundef i32 @_ZN6icu_7514SearchIterator4nextER10UErrorCode(ptr noundef nonnull align 8 dereferenceable(88) %this, ptr noundef nonnull align 4 dereferenceable(4) %status) #0 align 2 {
entry:
  %retval = alloca i32, align 4
  %this.addr = alloca ptr, align 8
  %status.addr = alloca ptr, align 8
  %offset = alloca i32, align 4
  %matchindex = alloca i32, align 4
  %matchlength = alloca i32, align 4
  %textlength = alloca i32, align 4
  store ptr %this, ptr %this.addr, align 8
  store ptr %status, ptr %status.addr, align 8
  %this1 = load ptr, ptr %this.addr, align 8
  %0 = load ptr, ptr %status.addr, align 8
  %1 = load i32, ptr %0, align 4
  %call = call noundef signext i8 @_ZL9U_SUCCESS10UErrorCode(i32 noundef %1)
  %tobool = icmp ne i8 %call, 0
  br i1 %tobool, label %if.then, label %if.end34

if.then:                                          ; preds = %entry
  %vtable = load ptr, ptr %this1, align 8
  %vfn = getelementptr inbounds ptr, ptr %vtable, i64 4
  %2 = load ptr, ptr %vfn, align 8
  %call2 = call noundef i32 %2(ptr noundef nonnull align 8 dereferenceable(88) %this1)
  store i32 %call2, ptr %offset, align 4
  %m_search_ = getelementptr inbounds %"class.icu_75::SearchIterator", ptr %this1, i32 0, i32 1
  %3 = load ptr, ptr %m_search_, align 8
  %matchedIndex = getelementptr inbounds %struct.USearch, ptr %3, i32 0, i32 7
  %4 = load i32, ptr %matchedIndex, align 8
  store i32 %4, ptr %matchindex, align 4
  %m_search_3 = getelementptr inbounds %"class.icu_75::SearchIterator", ptr %this1, i32 0, i32 1
  %5 = load ptr, ptr %m_search_3, align 8
  %matchedLength = getelementptr inbounds %struct.USearch, ptr %5, i32 0, i32 8
  %6 = load i32, ptr %matchedLength, align 4
  store i32 %6, ptr %matchlength, align 4
  %m_search_4 = getelementptr inbounds %"class.icu_75::SearchIterator", ptr %this1, i32 0, i32 1
  %7 = load ptr, ptr %m_search_4, align 8
  %reset = getelementptr inbounds %struct.USearch, ptr %7, i32 0, i32 10
  store i8 0, ptr %reset, align 1
  %m_search_5 = getelementptr inbounds %"class.icu_75::SearchIterator", ptr %this1, i32 0, i32 1
  %8 = load ptr, ptr %m_search_5, align 8
  %isForwardSearching = getelementptr inbounds %struct.USearch, ptr %8, i32 0, i32 9
  %9 = load i8, ptr %isForwardSearching, align 8
  %tobool6 = icmp ne i8 %9, 0
  br i1 %tobool6, label %if.then7, label %if.else

if.then7:                                         ; preds = %if.then
  %m_search_8 = getelementptr inbounds %"class.icu_75::SearchIterator", ptr %this1, i32 0, i32 1
  %10 = load ptr, ptr %m_search_8, align 8
  %textLength = getelementptr inbounds %struct.USearch, ptr %10, i32 0, i32 1
  %11 = load i32, ptr %textLength, align 8
  store i32 %11, ptr %textlength, align 4
  %12 = load i32, ptr %offset, align 4
  %13 = load i32, ptr %textlength, align 4
  %cmp = icmp eq i32 %12, %13
  br i1 %cmp, label %if.then13, label %lor.lhs.false

lor.lhs.false:                                    ; preds = %if.then7
  %14 = load i32, ptr %matchindex, align 4
  %15 = load i32, ptr %textlength, align 4
  %cmp9 = icmp eq i32 %14, %15
  br i1 %cmp9, label %if.then13, label %lor.lhs.false10

lor.lhs.false10:                                  ; preds = %lor.lhs.false
  %16 = load i32, ptr %matchindex, align 4
  %cmp11 = icmp ne i32 %16, -1
  br i1 %cmp11, label %land.lhs.true, label %if.end

land.lhs.true:                                    ; preds = %lor.lhs.false10
  %17 = load i32, ptr %matchindex, align 4
  %18 = load i32, ptr %matchlength, align 4
  %add = add nsw i32 %17, %18
  %19 = load i32, ptr %textlength, align 4
  %cmp12 = icmp sge i32 %add, %19
  br i1 %cmp12, label %if.then13, label %if.end

if.then13:                                        ; preds = %land.lhs.true, %lor.lhs.false, %if.then7
  call void @_ZN6icu_7514SearchIterator16setMatchNotFoundEv(ptr noundef nonnull align 8 dereferenceable(88) %this1)
  store i32 -1, ptr %retval, align 4
  br label %return

if.end:                                           ; preds = %land.lhs.true, %lor.lhs.false10
  br label %if.end21

if.else:                                          ; preds = %if.then
  %m_search_14 = getelementptr inbounds %"class.icu_75::SearchIterator", ptr %this1, i32 0, i32 1
  %20 = load ptr, ptr %m_search_14, align 8
  %isForwardSearching15 = getelementptr inbounds %struct.USearch, ptr %20, i32 0, i32 9
  store i8 1, ptr %isForwardSearching15, align 8
  %m_search_16 = getelementptr inbounds %"class.icu_75::SearchIterator", ptr %this1, i32 0, i32 1
  %21 = load ptr, ptr %m_search_16, align 8
  %matchedIndex17 = getelementptr inbounds %struct.USearch, ptr %21, i32 0, i32 7
  %22 = load i32, ptr %matchedIndex17, align 8
  %cmp18 = icmp ne i32 %22, -1
  br i1 %cmp18, label %if.then19, label %if.end20

if.then19:                                        ; preds = %if.else
  %23 = load i32, ptr %matchindex, align 4
  store i32 %23, ptr %retval, align 4
  br label %return

if.end20:                                         ; preds = %if.else
  br label %if.end21

if.end21:                                         ; preds = %if.end20, %if.end
  %24 = load i32, ptr %matchlength, align 4
  %cmp22 = icmp sgt i32 %24, 0
  br i1 %cmp22, label %if.then23, label %if.end30

if.then23:                                        ; preds = %if.end21
  %m_search_24 = getelementptr inbounds %"class.icu_75::SearchIterator", ptr %this1, i32 0, i32 1
  %25 = load ptr, ptr %m_search_24, align 8
  %isOverlap = getelementptr inbounds %struct.USearch, ptr %25, i32 0, i32 2
  %26 = load i8, ptr %isOverlap, align 4
  %tobool25 = icmp ne i8 %26, 0
  br i1 %tobool25, label %if.then26, label %if.else27

if.then26:                                        ; preds = %if.then23
  %27 = load i32, ptr %offset, align 4
  %inc = add nsw i32 %27, 1
  store i32 %inc, ptr %offset, align 4
  br label %if.end29

if.else27:                                        ; preds = %if.then23
  %28 = load i32, ptr %matchlength, align 4
  %29 = load i32, ptr %offset, align 4
  %add28 = add nsw i32 %29, %28
  store i32 %add28, ptr %offset, align 4
  br label %if.end29

if.end29:                                         ; preds = %if.else27, %if.then26
  br label %if.end30

if.end30:                                         ; preds = %if.end29, %if.end21
  %30 = load i32, ptr %offset, align 4
  %31 = load ptr, ptr %status.addr, align 8
  %vtable31 = load ptr, ptr %this1, align 8
  %vfn32 = getelementptr inbounds ptr, ptr %vtable31, i64 10
  %32 = load ptr, ptr %vfn32, align 8
  %call33 = call noundef i32 %32(ptr noundef nonnull align 8 dereferenceable(88) %this1, i32 noundef %30, ptr noundef nonnull align 4 dereferenceable(4) %31)
  store i32 %call33, ptr %retval, align 4
  br label %return

if.end34:                                         ; preds = %entry
  store i32 -1, ptr %retval, align 4
  br label %return

return:                                           ; preds = %if.end34, %if.end30, %if.then19, %if.then13
  %33 = load i32, ptr %retval, align 4
  ret i32 %33
}