; Function Attrs: mustprogress uwtable
define noundef i32 @_ZN6icu_7514SearchIterator4nextER10UErrorCode(ptr noundef nonnull align 8 dereferenceable(88) %this, ptr noundef nonnull align 4 dereferenceable(4) %status) local_unnamed_addr #0 align 2 {
entry:
  %status.i = alloca i32, align 4
  %0 = load i32, ptr %status, align 4
  %cmp.i = icmp sgt i32 %0, 0
  br i1 %cmp.i, label %return, label %if.then

if.then:                                          ; preds = %entry
  %vtable = load ptr, ptr %this, align 8
  %vfn = getelementptr inbounds i8, ptr %vtable, i64 32
  %1 = load ptr, ptr %vfn, align 8
  %call2 = tail call noundef i32 %1(ptr noundef nonnull align 8 dereferenceable(88) %this)
  %m_search_ = getelementptr inbounds i8, ptr %this, i64 8
  %2 = load ptr, ptr %m_search_, align 8
  %matchedIndex = getelementptr inbounds i8, ptr %2, i64 32
  %3 = load i32, ptr %matchedIndex, align 8
  %matchedLength = getelementptr inbounds i8, ptr %2, i64 36
  %4 = load i32, ptr %matchedLength, align 4
  %reset = getelementptr inbounds i8, ptr %2, i64 41
  store i8 0, ptr %reset, align 1
  %5 = load ptr, ptr %m_search_, align 8
  %isForwardSearching = getelementptr inbounds i8, ptr %5, i64 40
  %6 = load i8, ptr %isForwardSearching, align 8
  %tobool6.not = icmp eq i8 %6, 0
  br i1 %tobool6.not, label %if.else, label %if.then7

if.then7:                                         ; preds = %if.then
  %textLength = getelementptr inbounds i8, ptr %5, i64 8
  %7 = load i32, ptr %textLength, align 8
  %cmp = icmp eq i32 %call2, %7
  %cmp9 = icmp eq i32 %3, %7
  %or.cond = select i1 %cmp, i1 true, i1 %cmp9
  br i1 %or.cond, label %if.then13, label %lor.lhs.false10

lor.lhs.false10:                                  ; preds = %if.then7
  %cmp11.not = icmp eq i32 %3, -1
  %add = add nsw i32 %4, %3
  %cmp12.not = icmp slt i32 %add, %7
  %or.cond14 = select i1 %cmp11.not, i1 true, i1 %cmp12.not
  br i1 %or.cond14, label %if.end21, label %if.then13

if.then13:                                        ; preds = %lor.lhs.false10, %if.then7
  call void @llvm.lifetime.start.p0(i64 4, ptr nonnull %status.i)
  %vtable.i = load ptr, ptr %this, align 8
  %vfn.i = getelementptr inbounds i8, ptr %vtable.i, i64 104
  %8 = load ptr, ptr %vfn.i, align 8
  tail call void %8(ptr noundef nonnull align 8 dereferenceable(88) %this, i32 noundef -1)
  %vtable2.i = load ptr, ptr %this, align 8
  %vfn3.i = getelementptr inbounds i8, ptr %vtable2.i, i64 96
  %9 = load ptr, ptr %vfn3.i, align 8
  tail call void %9(ptr noundef nonnull align 8 dereferenceable(88) %this, i32 noundef 0)
  store i32 0, ptr %status.i, align 4
  %10 = load ptr, ptr %m_search_, align 8
  %isForwardSearching.i = getelementptr inbounds i8, ptr %10, i64 40
  %11 = load i8, ptr %isForwardSearching.i, align 8
  %tobool.not.i = icmp eq i8 %11, 0
  br i1 %tobool.not.i, label %_ZN6icu_7514SearchIterator16setMatchNotFoundEv.exit, label %if.then.i

if.then.i:                                        ; preds = %if.then13
  %textLength.i = getelementptr inbounds i8, ptr %10, i64 8
  %12 = load i32, ptr %textLength.i, align 8
  br label %_ZN6icu_7514SearchIterator16setMatchNotFoundEv.exit

_ZN6icu_7514SearchIterator16setMatchNotFoundEv.exit: ; preds = %if.then13, %if.then.i
  %.sink.i = phi i32 [ %12, %if.then.i ], [ 0, %if.then13 ]
  %vtable7.i = load ptr, ptr %this, align 8
  %vfn8.i = getelementptr inbounds i8, ptr %vtable7.i, i64 24
  %13 = load ptr, ptr %vfn8.i, align 8
  call void %13(ptr noundef nonnull align 8 dereferenceable(88) %this, i32 noundef %.sink.i, ptr noundef nonnull align 4 dereferenceable(4) %status.i)
  call void @llvm.lifetime.end.p0(i64 4, ptr nonnull %status.i)
  br label %return

if.else:                                          ; preds = %if.then
  store i8 1, ptr %isForwardSearching, align 8
  %14 = load ptr, ptr %m_search_, align 8
  %matchedIndex17 = getelementptr inbounds i8, ptr %14, i64 32
  %15 = load i32, ptr %matchedIndex17, align 8
  %cmp18.not = icmp eq i32 %15, -1
  br i1 %cmp18.not, label %if.end21, label %return

if.end21:                                         ; preds = %if.else, %lor.lhs.false10
  %16 = phi ptr [ %14, %if.else ], [ %5, %lor.lhs.false10 ]
  %cmp22 = icmp sgt i32 %4, 0
  br i1 %cmp22, label %if.then23, label %if.end30

if.then23:                                        ; preds = %if.end21
  %isOverlap = getelementptr inbounds i8, ptr %16, i64 12
  %17 = load i8, ptr %isOverlap, align 4
  %tobool25.not = icmp eq i8 %17, 0
  br i1 %tobool25.not, label %if.else27, label %if.then26

if.then26:                                        ; preds = %if.then23
  %inc = add nsw i32 %call2, 1
  br label %if.end30

if.else27:                                        ; preds = %if.then23
  %add28 = add nsw i32 %4, %call2
  br label %if.end30

if.end30:                                         ; preds = %if.then26, %if.else27, %if.end21
  %offset.0 = phi i32 [ %inc, %if.then26 ], [ %add28, %if.else27 ], [ %call2, %if.end21 ]
  %vtable31 = load ptr, ptr %this, align 8
  %vfn32 = getelementptr inbounds i8, ptr %vtable31, i64 80
  %18 = load ptr, ptr %vfn32, align 8
  %call33 = tail call noundef i32 %18(ptr noundef nonnull align 8 dereferenceable(88) %this, i32 noundef %offset.0, ptr noundef nonnull align 4 dereferenceable(4) %status)
  br label %return

return:                                           ; preds = %entry, %if.else, %if.end30, %_ZN6icu_7514SearchIterator16setMatchNotFoundEv.exit
  %retval.0 = phi i32 [ -1, %_ZN6icu_7514SearchIterator16setMatchNotFoundEv.exit ], [ %call33, %if.end30 ], [ %3, %if.else ], [ -1, %entry ]
  ret i32 %retval.0
}